; Function Attrs: mustprogress uwtable
define hidden void @_ZN6google8protobuf30DescriptorProto_ExtensionRange5ClearEv(ptr noundef nonnull align 8 dereferenceable(40) %0) unnamed_addr #3 align 2 personality ptr @__gxx_personality_v0 {
  %2 = getelementptr inbounds nuw i8, ptr %0, i64 16
  %3 = load i32, ptr %2, align 8, !tbaa !58
  %4 = and i32 %3, 1
  %.not = icmp eq i32 %4, 0
  br i1 %.not, label %_ZN6google8protobuf21ExtensionRangeOptions5ClearEv.exit, label %5

5:                                                ; preds = %1
  %6 = getelementptr inbounds nuw i8, ptr %0, i64 24
  %7 = load ptr, ptr %6, align 8, !tbaa !172
  %8 = getelementptr inbounds nuw i8, ptr %7, i64 16
  tail call void @_ZN6google8protobuf8internal12ExtensionSet5ClearEv(ptr noundef nonnull align 8 dereferenceable(24) %8)
  %9 = getelementptr inbounds nuw i8, ptr %7, i64 48
  %10 = load i32, ptr %9, align 8, !tbaa !22
  %11 = icmp sgt i32 %10, 0
  br i1 %11, label %12, label %_ZN6google8protobuf16RepeatedPtrFieldINS0_19UninterpretedOptionEE5ClearEv.exit.i

12:                                               ; preds = %5
  %13 = getelementptr inbounds nuw i8, ptr %7, i64 56
  %14 = load ptr, ptr %13, align 8, !tbaa !18
  %15 = getelementptr inbounds nuw i8, ptr %14, i64 8
  %wide.trip.count.i.i.i = zext nneg i32 %10 to i64
  br label %16

16:                                               ; preds = %16, %12
  %indvars.iv.i.i.i = phi i64 [ %indvars.iv.next.i.i.i, %16 ], [ 0, %12 ]
  %indvars.iv.next.i.i.i = add nuw nsw i64 %indvars.iv.i.i.i, 1
  %17 = getelementptr inbounds nuw ptr, ptr %15, i64 %indvars.iv.i.i.i
  %18 = load ptr, ptr %17, align 8, !tbaa !27
  tail call void @_ZN6google8protobuf19UninterpretedOption5ClearEv(ptr noundef nonnull align 8 dereferenceable(96) %18)
  %exitcond.not.i.i.i = icmp eq i64 %indvars.iv.next.i.i.i, %wide.trip.count.i.i.i
  br i1 %exitcond.not.i.i.i, label %19, label %16, !llvm.loop !94

19:                                               ; preds = %16
  store i32 0, ptr %9, align 8, !tbaa !22
  br label %_ZN6google8protobuf16RepeatedPtrFieldINS0_19UninterpretedOptionEE5ClearEv.exit.i

_ZN6google8protobuf16RepeatedPtrFieldINS0_19UninterpretedOptionEE5ClearEv.exit.i: ; preds = %19, %5
  %20 = getelementptr inbounds nuw i8, ptr %7, i64 8
  %21 = load i64, ptr %20, align 8, !tbaa !8
  %22 = and i64 %21, 1
  %.not.i = icmp eq i64 %22, 0
  br i1 %.not.i, label %_ZN6google8protobuf21ExtensionRangeOptions5ClearEv.exit, label %23

23:                                               ; preds = %_ZN6google8protobuf16RepeatedPtrFieldINS0_19UninterpretedOptionEE5ClearEv.exit.i
  tail call void @_ZN6google8protobuf8internal16InternalMetadata7DoClearINS0_15UnknownFieldSetEEEvv(ptr noundef nonnull align 8 dereferenceable(8) %20)
  br label %_ZN6google8protobuf21ExtensionRangeOptions5ClearEv.exit

_ZN6google8protobuf21ExtensionRangeOptions5ClearEv.exit: ; preds = %23, %_ZN6google8protobuf16RepeatedPtrFieldINS0_19UninterpretedOptionEE5ClearEv.exit.i, %1
  %24 = and i32 %3, 6
  %.not2 = icmp eq i32 %24, 0
  br i1 %.not2, label %27, label %25

25:                                               ; preds = %_ZN6google8protobuf21ExtensionRangeOptions5ClearEv.exit
  %26 = getelementptr inbounds nuw i8, ptr %0, i64 32
  store i64 0, ptr %26, align 8
  br label %27

27:                                               ; preds = %25, %_ZN6google8protobuf21ExtensionRangeOptions5ClearEv.exit
  store i32 0, ptr %2, align 8
  %28 = getelementptr inbounds nuw i8, ptr %0, i64 8
  %29 = load i64, ptr %28, align 8, !tbaa !8
  %30 = and i64 %29, 1
  %.not3 = icmp eq i64 %30, 0
  br i1 %.not3, label %_ZN6google8protobuf8internal16InternalMetadata5ClearINS0_15UnknownFieldSetEEEvv.exit, label %31

31:                                               ; preds = %27
  tail call void @_ZN6google8protobuf8internal16InternalMetadata7DoClearINS0_15UnknownFieldSetEEEvv(ptr noundef nonnull align 8 dereferenceable(8) %28)
  br label %_ZN6google8protobuf8internal16InternalMetadata5ClearINS0_15UnknownFieldSetEEEvv.exit

_ZN6google8protobuf8internal16InternalMetadata5ClearINS0_15UnknownFieldSetEEEvv.exit: ; preds = %27, %31
  ret void
}